target datalayout = "e-m:e-p270:32:32-p271:32:32-p272:64:64-i64:64-i128:128-f80:128-n8:16:32:64-S128"
target triple = "x86_64-pc-linux-gnu"

%struct.FunctionCallInfoBaseData = type { ptr, ptr, ptr, i32, i8, i16, [0 x %struct.NullableDatum] }
%struct.NullableDatum = type { i64, i8 }
%struct.BrinValues = type { i16, i8, i8, ptr, i64, ptr, ptr }
%struct.BloomFilter = type { i32, i16, i8, i32, i32, [0 x i8] }

@pg_number_of_ones = external constant [256 x i8], align 16
@pg_popcount_optimized = external global ptr, align 8

; Function Attrs: inlinehint nounwind uwtable
define internal i64 @pg_popcount(ptr noundef %0, i32 noundef %1) #3 {
  %3 = alloca i64, align 8
  %4 = alloca ptr, align 8
  %5 = alloca i32, align 4
  %6 = alloca i32, align 4
  %7 = alloca i64, align 8
  %8 = alloca i32, align 4
  store ptr %0, ptr %4, align 8
  store i32 %1, ptr %5, align 4
  call void @llvm.lifetime.start.p0(i64 4, ptr %6) #7
  store i32 8, ptr %6, align 4
  %9 = load i32, ptr %5, align 4
  %10 = load i32, ptr %6, align 4
  %11 = icmp slt i32 %9, %10
  br i1 %11, label %12, label %29

12:                                               ; preds = %2
  call void @llvm.lifetime.start.p0(i64 8, ptr %7) #7
  store i64 0, ptr %7, align 8
  br label %13

13:                                               ; preds = %17, %12
  %14 = load i32, ptr %5, align 4
  %15 = add i32 %14, -1
  store i32 %15, ptr %5, align 4
  %16 = icmp ne i32 %14, 0
  br i1 %16, label %17, label %27

17:                                               ; preds = %13
  %18 = load ptr, ptr %4, align 8
  %19 = getelementptr inbounds nuw i8, ptr %18, i32 1
  store ptr %19, ptr %4, align 8
  %20 = load i8, ptr %18, align 1
  %21 = zext i8 %20 to i64
  %22 = getelementptr inbounds nuw [256 x i8], ptr @pg_number_of_ones, i64 0, i64 %21
  %23 = load i8, ptr %22, align 1
  %24 = zext i8 %23 to i64
  %25 = load i64, ptr %7, align 8
  %26 = add i64 %25, %24
  store i64 %26, ptr %7, align 8
  br label %13, !llvm.loop !11

27:                                               ; preds = %13
  %28 = load i64, ptr %7, align 8
  store i64 %28, ptr %3, align 8
  store i32 1, ptr %8, align 4
  call void @llvm.lifetime.end.p0(i64 8, ptr %7) #7
  br label %34

29:                                               ; preds = %2
  %30 = load ptr, ptr @pg_popcount_optimized, align 8
  %31 = load ptr, ptr %4, align 8
  %32 = load i32, ptr %5, align 4
  %33 = call i64 %30(ptr noundef %31, i32 noundef %32)
  store i64 %33, ptr %3, align 8
  store i32 1, ptr %8, align 4
  br label %34

34:                                               ; preds = %29, %27
  call void @llvm.lifetime.end.p0(i64 4, ptr %6) #7
  %35 = load i64, ptr %3, align 8
  ret i64 %35
}

; Function Attrs: inlinehint nounwind uwtable
define internal ptr @DatumGetPointer(i64 noundef %0) #3 {
  %2 = alloca i64, align 8
  store i64 %0, ptr %2, align 8
  %3 = load i64, ptr %2, align 8
  %4 = inttoptr i64 %3 to ptr
  ret ptr %4
}

; Function Attrs: nounwind uwtable
define dso_local i64 @brin_bloom_union(ptr noundef %0) #0 {
  %2 = alloca ptr, align 8
  %3 = alloca i32, align 4
  %4 = alloca i32, align 4
  %5 = alloca ptr, align 8
  %6 = alloca ptr, align 8
  %7 = alloca ptr, align 8
  %8 = alloca ptr, align 8
  store ptr %0, ptr %2, align 8
  call void @llvm.lifetime.start.p0(i64 4, ptr %3) #7
  call void @llvm.lifetime.start.p0(i64 4, ptr %4) #7
  call void @llvm.lifetime.start.p0(i64 8, ptr %5) #7
  %9 = load ptr, ptr %2, align 8
  %10 = getelementptr inbounds nuw %struct.FunctionCallInfoBaseData, ptr %9, i32 0, i32 6
  %11 = getelementptr inbounds [0 x %struct.NullableDatum], ptr %10, i64 0, i64 1
  %12 = getelementptr inbounds nuw %struct.NullableDatum, ptr %11, i32 0, i32 0
  %13 = load i64, ptr %12, align 8
  %14 = call ptr @DatumGetPointer(i64 noundef %13)
  store ptr %14, ptr %5, align 8
  call void @llvm.lifetime.start.p0(i64 8, ptr %6) #7
  %15 = load ptr, ptr %2, align 8
  %16 = getelementptr inbounds nuw %struct.FunctionCallInfoBaseData, ptr %15, i32 0, i32 6
  %17 = getelementptr inbounds [0 x %struct.NullableDatum], ptr %16, i64 0, i64 2
  %18 = getelementptr inbounds nuw %struct.NullableDatum, ptr %17, i32 0, i32 0
  %19 = load i64, ptr %18, align 8
  %20 = call ptr @DatumGetPointer(i64 noundef %19)
  store ptr %20, ptr %6, align 8
  call void @llvm.lifetime.start.p0(i64 8, ptr %7) #7
  call void @llvm.lifetime.start.p0(i64 8, ptr %8) #7
  %21 = load ptr, ptr %5, align 8
  %22 = getelementptr inbounds nuw %struct.BrinValues, ptr %21, i32 0, i32 3
  %23 = load ptr, ptr %22, align 8
  %24 = getelementptr inbounds i64, ptr %23, i64 0
  %25 = load i64, ptr %24, align 8
  %26 = call ptr @DatumGetPointer(i64 noundef %25)
  %27 = call ptr @pg_detoast_datum(ptr noundef %26)
  store ptr %27, ptr %7, align 8
  %28 = load ptr, ptr %6, align 8
  %29 = getelementptr inbounds nuw %struct.BrinValues, ptr %28, i32 0, i32 3
  %30 = load ptr, ptr %29, align 8
  %31 = getelementptr inbounds i64, ptr %30, i64 0
  %32 = load i64, ptr %31, align 8
  %33 = call ptr @DatumGetPointer(i64 noundef %32)
  %34 = call ptr @pg_detoast_datum(ptr noundef %33)
  store ptr %34, ptr %8, align 8
  %35 = load ptr, ptr %7, align 8
  %36 = getelementptr inbounds nuw %struct.BloomFilter, ptr %35, i32 0, i32 3
  %37 = load i32, ptr %36, align 4
  %38 = udiv i32 %37, 8
  store i32 %38, ptr %4, align 4
  store i32 0, ptr %3, align 4
  br label %39

39:                                               ; preds = %60, %1
  %40 = load i32, ptr %3, align 4
  %41 = load i32, ptr %4, align 4
  %42 = icmp slt i32 %40, %41
  br i1 %42, label %43, label %63

43:                                               ; preds = %39
  %44 = load ptr, ptr %8, align 8
  %45 = getelementptr inbounds nuw %struct.BloomFilter, ptr %44, i32 0, i32 5
  %46 = load i32, ptr %3, align 4
  %47 = sext i32 %46 to i64
  %48 = getelementptr inbounds [0 x i8], ptr %45, i64 0, i64 %47
  %49 = load i8, ptr %48, align 1
  %50 = sext i8 %49 to i32
  %51 = load ptr, ptr %7, align 8
  %52 = getelementptr inbounds nuw %struct.BloomFilter, ptr %51, i32 0, i32 5
  %53 = load i32, ptr %3, align 4
  %54 = sext i32 %53 to i64
  %55 = getelementptr inbounds [0 x i8], ptr %52, i64 0, i64 %54
  %56 = load i8, ptr %55, align 1
  %57 = sext i8 %56 to i32
  %58 = or i32 %57, %50
  %59 = trunc i32 %58 to i8
  store i8 %59, ptr %55, align 1
  br label %60

60:                                               ; preds = %43
  %61 = load i32, ptr %3, align 4
  %62 = add i32 %61, 1
  store i32 %62, ptr %3, align 4
  br label %39, !llvm.loop !10

63:                                               ; preds = %39
  %64 = load ptr, ptr %7, align 8
  %65 = getelementptr inbounds nuw %struct.BloomFilter, ptr %64, i32 0, i32 5
  %66 = getelementptr inbounds [0 x i8], ptr %65, i64 0, i64 0
  %67 = load i32, ptr %4, align 4
  %68 = call i64 @pg_popcount(ptr noundef %66, i32 noundef %67)
  %69 = trunc i64 %68 to i32
  %70 = load ptr, ptr %7, align 8
  %71 = getelementptr inbounds nuw %struct.BloomFilter, ptr %70, i32 0, i32 4
  store i32 %69, ptr %71, align 4
  call void @llvm.lifetime.end.p0(i64 8, ptr %8) #7
  call void @llvm.lifetime.end.p0(i64 8, ptr %7) #7
  call void @llvm.lifetime.end.p0(i64 8, ptr %6) #7
  call void @llvm.lifetime.end.p0(i64 8, ptr %5) #7
  call void @llvm.lifetime.end.p0(i64 4, ptr %4) #7
  call void @llvm.lifetime.end.p0(i64 4, ptr %3) #7
  ret i64 0
}