; Function Attrs: nounwind uwtable
define dso_local noundef i64 @brin_bloom_union(ptr noundef readonly captures(none) %0) local_unnamed_addr #0 {
  %2 = getelementptr inbounds nuw i8, ptr %0, i64 48
  %3 = load i64, ptr %2, align 8
  %4 = inttoptr i64 %3 to ptr
  %5 = getelementptr inbounds nuw i8, ptr %0, i64 64
  %6 = load i64, ptr %5, align 8
  %7 = inttoptr i64 %6 to ptr
  %8 = getelementptr inbounds nuw i8, ptr %4, i64 8
  %9 = load ptr, ptr %8, align 8
  %10 = load i64, ptr %9, align 8
  %11 = inttoptr i64 %10 to ptr
  %12 = tail call ptr @pg_detoast_datum(ptr noundef %11) #8
  %13 = getelementptr inbounds nuw i8, ptr %7, i64 8
  %14 = load ptr, ptr %13, align 8
  %15 = load i64, ptr %14, align 8
  %16 = inttoptr i64 %15 to ptr
  %17 = tail call ptr @pg_detoast_datum(ptr noundef %16) #8
  %18 = getelementptr inbounds nuw i8, ptr %12, i64 8
  %19 = load i32, ptr %18, align 4
  %20 = lshr i32 %19, 3
  %.not = icmp ult i32 %19, 8
  br i1 %.not, label %pg_popcount.exit, label %.lr.ph

.lr.ph:                                           ; preds = %1
  %21 = getelementptr inbounds nuw i8, ptr %17, i64 16
  %22 = getelementptr inbounds nuw i8, ptr %12, i64 16
  %wide.trip.count = zext nneg i32 %20 to i64
  br label %23

23:                                               ; preds = %.lr.ph, %23
  %indvars.iv = phi i64 [ 0, %.lr.ph ], [ %indvars.iv.next, %23 ]
  %24 = getelementptr inbounds nuw [0 x i8], ptr %21, i64 0, i64 %indvars.iv
  %25 = load i8, ptr %24, align 1
  %26 = getelementptr inbounds nuw [0 x i8], ptr %22, i64 0, i64 %indvars.iv
  %27 = load i8, ptr %26, align 1
  %28 = or i8 %27, %25
  store i8 %28, ptr %26, align 1
  %indvars.iv.next = add nuw nsw i64 %indvars.iv, 1
  %exitcond.not = icmp eq i64 %indvars.iv.next, %wide.trip.count
  br i1 %exitcond.not, label %._crit_edge, label %23, !llvm.loop !10

._crit_edge:                                      ; preds = %23
  %29 = getelementptr inbounds nuw i8, ptr %12, i64 16
  %30 = icmp ult i32 %19, 64
  br i1 %30, label %.lr.ph.i, label %39

.lr.ph.i:                                         ; preds = %._crit_edge, %.lr.ph.i
  %.015.i = phi i64 [ %38, %.lr.ph.i ], [ 0, %._crit_edge ]
  %.0914.i = phi i32 [ %31, %.lr.ph.i ], [ %20, %._crit_edge ]
  %.01013.i = phi ptr [ %32, %.lr.ph.i ], [ %29, %._crit_edge ]
  %31 = add nsw i32 %.0914.i, -1
  %32 = getelementptr inbounds nuw i8, ptr %.01013.i, i64 1
  %33 = load i8, ptr %.01013.i, align 1
  %34 = zext i8 %33 to i64
  %35 = getelementptr inbounds nuw [256 x i8], ptr @pg_number_of_ones, i64 0, i64 %34
  %36 = load i8, ptr %35, align 1
  %37 = zext i8 %36 to i64
  %38 = add i64 %.015.i, %37
  %.not.i = icmp eq i32 %31, 0
  br i1 %.not.i, label %pg_popcount.exit, label %.lr.ph.i, !llvm.loop !11

39:                                               ; preds = %._crit_edge
  %40 = load ptr, ptr @pg_popcount_optimized, align 8
  %41 = tail call i64 %40(ptr noundef nonnull %29, i32 noundef range(i32 0, 536870912) %20) #8
  br label %pg_popcount.exit

pg_popcount.exit:                                 ; preds = %.lr.ph.i, %1, %39
  %.08.i = phi i64 [ %41, %39 ], [ 0, %1 ], [ %38, %.lr.ph.i ]
  %42 = trunc i64 %.08.i to i32
  %43 = getelementptr inbounds nuw i8, ptr %12, i64 12
  store i32 %42, ptr %43, align 4
  ret i64 0
}